; Function Attrs: mustprogress uwtable
define hidden void @_ZN4cvc58internal5proof10DotPrinter14sanitizeStringERKNSt7__cxx1112basic_stringIcSt11char_traitsIcESaIcEEE(ptr noalias nonnull sret(%"class.std::__cxx11::basic_string") align 8 %agg.result, ptr noundef nonnull align 8 dereferenceable(32) %s) local_unnamed_addr #3 align 2 personality ptr @__gxx_personality_v0 {
entry:
  tail call void @_ZNSt7__cxx1112basic_stringIcSt11char_traitsIcESaIcEEC1Ev(ptr noundef nonnull align 8 dereferenceable(32) %agg.result) #18
  %call = tail call noundef i64 @_ZNKSt7__cxx1112basic_stringIcSt11char_traitsIcESaIcEE4sizeEv(ptr noundef nonnull align 8 dereferenceable(32) %s) #18
  invoke void @_ZNSt7__cxx1112basic_stringIcSt11char_traitsIcESaIcEE7reserveEm(ptr noundef nonnull align 8 dereferenceable(32) %agg.result, i64 noundef %call)
          to label %invoke.cont unwind label %lpad.loopexit.split-lp

invoke.cont:                                      ; preds = %entry
  %call1 = tail call ptr @_ZNKSt7__cxx1112basic_stringIcSt11char_traitsIcESaIcEE5beginEv(ptr noundef nonnull align 8 dereferenceable(32) %s) #18
  %call2 = tail call ptr @_ZNKSt7__cxx1112basic_stringIcSt11char_traitsIcESaIcEE3endEv(ptr noundef nonnull align 8 dereferenceable(32) %s) #18
  %cmp.i.not8 = icmp eq ptr %call1, %call2
  br i1 %cmp.i.not8, label %nrvo.skipdtor, label %for.body

for.body:                                         ; preds = %invoke.cont, %for.inc
  %__begin2.sroa.0.09 = phi ptr [ %incdec.ptr.i, %for.inc ], [ %call1, %invoke.cont ]
  %0 = load i8, ptr %__begin2.sroa.0.09, align 1
  switch i8 %0, label %sw.default [
    i8 34, label %sw.bb.invoke
    i8 62, label %sw.bb8
    i8 60, label %sw.bb11
    i8 123, label %sw.bb14
    i8 125, label %sw.bb17
    i8 124, label %sw.bb20
  ]

lpad.loopexit:                                    ; preds = %sw.bb.invoke, %sw.default
  %lpad.loopexit6 = landingpad { ptr, i32 }
          cleanup
  br label %lpad

lpad.loopexit.split-lp:                           ; preds = %entry
  %lpad.loopexit.split-lp7 = landingpad { ptr, i32 }
          cleanup
  br label %lpad

lpad:                                             ; preds = %lpad.loopexit.split-lp, %lpad.loopexit
  %lpad.phi = phi { ptr, i32 } [ %lpad.loopexit6, %lpad.loopexit ], [ %lpad.loopexit.split-lp7, %lpad.loopexit.split-lp ]
  tail call void @_ZNSt7__cxx1112basic_stringIcSt11char_traitsIcESaIcEED1Ev(ptr noundef nonnull align 8 dereferenceable(32) %agg.result) #18
  resume { ptr, i32 } %lpad.phi

sw.bb.invoke:                                     ; preds = %for.body, %sw.bb20, %sw.bb17, %sw.bb14, %sw.bb11, %sw.bb8
  %1 = phi ptr [ @.str.16, %sw.bb8 ], [ @.str.17, %sw.bb11 ], [ @.str.18, %sw.bb14 ], [ @.str.19, %sw.bb17 ], [ @.str.20, %sw.bb20 ], [ @.str.21, %for.body ]
  %2 = invoke noundef nonnull align 8 dereferenceable(32) ptr @_ZNSt7__cxx1112basic_stringIcSt11char_traitsIcESaIcEEpLEPKc(ptr noundef nonnull align 8 dereferenceable(32) %agg.result, ptr noundef nonnull %1)
          to label %for.inc unwind label %lpad.loopexit

sw.bb8:                                           ; preds = %for.body
  br label %sw.bb.invoke

sw.bb11:                                          ; preds = %for.body
  br label %sw.bb.invoke

sw.bb14:                                          ; preds = %for.body
  br label %sw.bb.invoke

sw.bb17:                                          ; preds = %for.body
  br label %sw.bb.invoke

sw.bb20:                                          ; preds = %for.body
  br label %sw.bb.invoke

sw.default:                                       ; preds = %for.body
  %call24 = invoke noundef nonnull align 8 dereferenceable(32) ptr @_ZNSt7__cxx1112basic_stringIcSt11char_traitsIcESaIcEEpLEc(ptr noundef nonnull align 8 dereferenceable(32) %agg.result, i8 noundef signext %0)
          to label %for.inc unwind label %lpad.loopexit

for.inc:                                          ; preds = %sw.bb.invoke, %sw.default
  %incdec.ptr.i = getelementptr inbounds i8, ptr %__begin2.sroa.0.09, i64 1
  %cmp.i.not = icmp eq ptr %incdec.ptr.i, %call2
  br i1 %cmp.i.not, label %nrvo.skipdtor, label %for.body

nrvo.skipdtor:                                    ; preds = %for.inc, %invoke.cont
  ret void
}